(dp1
I0
S'np-ZX'
p2
sI1
S'np-SG'
p3
sI2
S'dp-SG'
p4
sI3
S'vp-SG'
p5
sI4
S'vp-PO'
p6
sI5
S'FuncWord'
p7
sI6
S'ap-SG'
p8
sI7
S'vp-SB'
p9
sI8
S'mp-ZX'
p10
sI9
S'vp-ZX'
p11
sI10
S'ap-ZX'
p12
sI11
S'vp-AD'
p13
sI12
S'sp-SG'
p14
sI13
S'sp-ZX'
p15
sI14
S'tp-ZX'
p16
sI15
S'ap-LH'
p17
sI16
S'tp-SG'
p18
sI17
S'np-LN'
p19
sI18
S'sp-LH'
p20
sI19
S'ap-SB'
p21
sI20
S'np-AD'
p22
sI21
S'vp-LN'
p23
sI22
S'vp-LH'
p24
sI23
S'mp-SG'
p25
sI24
S'np-LH'
p26
sI25
S'ap-LN'
p27
sI26
S'vp-CD'
p28
sI27
S'mbar-SG'
p29
sI28
S'tp-LN'
p30
sI29
S'sp-LN'
p31
sI30
S'dp-ZX'
p32
sI31
S'ap-AD'
p33
sI32
S'ap-CD'
p34
sI33
S'dp-AD'
p35
sI34
S'sp-AD'
p36
sI35
S'ap-PO'
p37
sI36
S'tp-AD'
p38
sI37
S'tp-LH'
p39
sI38
S'dp-LH'
p40
s.